(lp0
(I0
S'repeat'
p1
I245
I139
(lp2
NaI1
aI2
aNatp3
a(I1
(S'number'
p4
I4
tp5
I331
I148
(lp6
I0
aNatp7
a(I2
S'forward'
p8
I340
I188
(lp9
I0
aI3
aI4
atp10
a(I3
(g4
I200
tp11
I414
I197
(lp12
I2
aNatp13
a(I4
S'right'
p14
I340
I227
(lp15
I2
aI5
aNatp16
a(I5
(g4
I90
tp17
I414
I236
(lp18
I4
aNatp19
a(I-1
S'turtle'
p20
F2.8421709430404007e-14
F-3.6738190614671318e-14
F0.0
I0
I50
I5
tp21
a.